target datalayout = "e-m:e-p270:32:32-p271:32:32-p272:64:64-i64:64-i128:128-f80:128-n8:16:32:64-S128"
target triple = "x86_64-unknown-linux-gnu"

%"class.absl::Span.237" = type { ptr, i64 }
%"struct.absl::container_internal::(anonymous namespace)::Int128" = type { i64, i64 }

@.str.193 = private unnamed_addr constant [5 x i8] c" ...\00", align 1

; Function Attrs: mustprogress uwtable
define internal void @_ZN7testing8internal15RawBytesPrinter10PrintValueIN4absl18container_internal12_GLOBAL__N_16Int128ELm16EEEvRKT_PSo(ptr noundef nonnull align 8 dereferenceable(16) %value, ptr noundef %os) #4 align 2 {
entry:
  %value.addr = alloca ptr, align 8
  %os.addr = alloca ptr, align 8
  store ptr %value, ptr %value.addr, align 8
  store ptr %os, ptr %os.addr, align 8
  %0 = load ptr, ptr %value.addr, align 8
  %1 = load ptr, ptr %os.addr, align 8
  call void @_ZN7testing8internal20PrintBytesInObjectToEPKhmPSo(ptr noundef %0, i64 noundef 16, ptr noundef %1)
  ret void
}

; Function Attrs: mustprogress uwtable
define internal void @_ZN7testing8internal17PrintWithFallbackIN4absl18container_internal12_GLOBAL__N_16Int128EEEvRKT_PSo(ptr noundef nonnull align 8 dereferenceable(16) %value, ptr noundef %os) #4 {
entry:
  %value.addr = alloca ptr, align 8
  %os.addr = alloca ptr, align 8
  store ptr %value, ptr %value.addr, align 8
  store ptr %os, ptr %os.addr, align 8
  %0 = load ptr, ptr %value.addr, align 8
  %1 = load ptr, ptr %os.addr, align 8
  call void @_ZN7testing8internal15RawBytesPrinter10PrintValueIN4absl18container_internal12_GLOBAL__N_16Int128ELm16EEEvRKT_PSo(ptr noundef nonnull align 8 dereferenceable(16) %0, ptr noundef %1)
  ret void
}

; Function Attrs: mustprogress uwtable
define internal void @_ZN7testing8internal7PrintToIN4absl18container_internal12_GLOBAL__N_16Int128EEEvRKT_PSo(ptr noundef nonnull align 8 dereferenceable(16) %value, ptr noundef %os) #4 {
entry:
  %value.addr = alloca ptr, align 8
  %os.addr = alloca ptr, align 8
  store ptr %value, ptr %value.addr, align 8
  store ptr %os, ptr %os.addr, align 8
  %0 = load ptr, ptr %value.addr, align 8
  %1 = load ptr, ptr %os.addr, align 8
  call void @_ZN7testing8internal17PrintWithFallbackIN4absl18container_internal12_GLOBAL__N_16Int128EEEvRKT_PSo(ptr noundef nonnull align 8 dereferenceable(16) %0, ptr noundef %1)
  ret void
}

; Function Attrs: mustprogress uwtable
define internal void @_ZN7testing8internal16UniversalPrinterIN4absl18container_internal12_GLOBAL__N_16Int128EE5PrintERKS5_PSo(ptr noundef nonnull align 8 dereferenceable(16) %value, ptr noundef %os) #4 align 2 {
entry:
  %value.addr = alloca ptr, align 8
  %os.addr = alloca ptr, align 8
  store ptr %value, ptr %value.addr, align 8
  store ptr %os, ptr %os.addr, align 8
  %0 = load ptr, ptr %value.addr, align 8
  %1 = load ptr, ptr %os.addr, align 8
  call void @_ZN7testing8internal7PrintToIN4absl18container_internal12_GLOBAL__N_16Int128EEEvRKT_PSo(ptr noundef nonnull align 8 dereferenceable(16) %0, ptr noundef %1)
  ret void
}

; Function Attrs: mustprogress nounwind uwtable
define internal noundef i64 @_ZNK4absl4SpanINS_18container_internal12_GLOBAL__N_16Int128EE4sizeEv(ptr noundef nonnull align 8 dereferenceable(16) %this) #7 align 2 {
entry:
  %this.addr = alloca ptr, align 8
  store ptr %this, ptr %this.addr, align 8
  %this1 = load ptr, ptr %this.addr, align 8
  %len_ = getelementptr inbounds %"class.absl::Span.237", ptr %this1, i32 0, i32 1
  %0 = load i64, ptr %len_, align 8
  ret i64 %0
}

; Function Attrs: mustprogress nounwind uwtable
define internal noundef ptr @_ZNK4absl4SpanINS_18container_internal12_GLOBAL__N_16Int128EE4dataEv(ptr noundef nonnull align 8 dereferenceable(16) %this) #7 align 2 {
entry:
  %this.addr = alloca ptr, align 8
  store ptr %this, ptr %this.addr, align 8
  %this1 = load ptr, ptr %this.addr, align 8
  %ptr_ = getelementptr inbounds %"class.absl::Span.237", ptr %this1, i32 0, i32 0
  %0 = load ptr, ptr %ptr_, align 8
  ret ptr %0
}

; Function Attrs: mustprogress uwtable
define internal void @_ZN7testing8internal14UniversalPrintIN4absl18container_internal12_GLOBAL__N_16Int128EEEvRKT_PSo(ptr noundef nonnull align 8 dereferenceable(16) %value, ptr noundef %os) #4 {
entry:
  %value.addr = alloca ptr, align 8
  %os.addr = alloca ptr, align 8
  store ptr %value, ptr %value.addr, align 8
  store ptr %os, ptr %os.addr, align 8
  %0 = load ptr, ptr %value.addr, align 8
  %1 = load ptr, ptr %os.addr, align 8
  call void @_ZN7testing8internal16UniversalPrinterIN4absl18container_internal12_GLOBAL__N_16Int128EE5PrintERKS5_PSo(ptr noundef nonnull align 8 dereferenceable(16) %0, ptr noundef %1)
  ret void
}

; Function Attrs: mustprogress nounwind uwtable
define internal noundef ptr @_ZNK4absl4SpanINS_18container_internal12_GLOBAL__N_16Int128EE3endEv(ptr noundef nonnull align 8 dereferenceable(16) %this) #7 align 2 {
entry:
  %this.addr = alloca ptr, align 8
  store ptr %this, ptr %this.addr, align 8
  %this1 = load ptr, ptr %this.addr, align 8
  %call = call noundef ptr @_ZNK4absl4SpanINS_18container_internal12_GLOBAL__N_16Int128EE4dataEv(ptr noundef nonnull align 8 dereferenceable(16) %this1) #3
  %call2 = call noundef i64 @_ZNK4absl4SpanINS_18container_internal12_GLOBAL__N_16Int128EE4sizeEv(ptr noundef nonnull align 8 dereferenceable(16) %this1) #3
  %add.ptr = getelementptr inbounds %"struct.absl::container_internal::(anonymous namespace)::Int128", ptr %call, i64 %call2
  ret ptr %add.ptr
}

; Function Attrs: mustprogress nounwind uwtable
define internal noundef ptr @_ZNK4absl4SpanINS_18container_internal12_GLOBAL__N_16Int128EE5beginEv(ptr noundef nonnull align 8 dereferenceable(16) %this) #7 align 2 {
entry:
  %this.addr = alloca ptr, align 8
  store ptr %this, ptr %this.addr, align 8
  %this1 = load ptr, ptr %this.addr, align 8
  %call = call noundef ptr @_ZNK4absl4SpanINS_18container_internal12_GLOBAL__N_16Int128EE4dataEv(ptr noundef nonnull align 8 dereferenceable(16) %this1) #3
  ret ptr %call
}

; Function Attrs: mustprogress uwtable
define internal void @_ZN7testing8internal16ContainerPrinter10PrintValueIN4absl4SpanINS3_18container_internal12_GLOBAL__N_16Int128EEEvEEvRKT_PSo(ptr noundef nonnull align 8 dereferenceable(16) %container, ptr noundef %os) #4 align 2 {
entry:
  %container.addr = alloca ptr, align 8
  %os.addr = alloca ptr, align 8
  %kMaxCount = alloca i64, align 8
  %count = alloca i64, align 8
  %__range3 = alloca ptr, align 8
  %__begin0 = alloca ptr, align 8
  %__end0 = alloca ptr, align 8
  %elem = alloca ptr, align 8
  store ptr %container, ptr %container.addr, align 8
  store ptr %os, ptr %os.addr, align 8
  store i64 32, ptr %kMaxCount, align 8
  %0 = load ptr, ptr %os.addr, align 8
  %call = call noundef nonnull align 8 dereferenceable(8) ptr @_ZStlsISt11char_traitsIcEERSt13basic_ostreamIcT_ES5_c(ptr noundef nonnull align 8 dereferenceable(8) %0, i8 noundef signext 123)
  store i64 0, ptr %count, align 8
  %1 = load ptr, ptr %container.addr, align 8
  store ptr %1, ptr %__range3, align 8
  %2 = load ptr, ptr %__range3, align 8
  %call1 = call noundef ptr @_ZNK4absl4SpanINS_18container_internal12_GLOBAL__N_16Int128EE5beginEv(ptr noundef nonnull align 8 dereferenceable(16) %2) #3
  store ptr %call1, ptr %__begin0, align 8
  %3 = load ptr, ptr %__range3, align 8
  %call2 = call noundef ptr @_ZNK4absl4SpanINS_18container_internal12_GLOBAL__N_16Int128EE3endEv(ptr noundef nonnull align 8 dereferenceable(16) %3) #3
  store ptr %call2, ptr %__end0, align 8
  br label %for.cond

for.cond:                                         ; preds = %for.inc, %entry
  %4 = load ptr, ptr %__begin0, align 8
  %5 = load ptr, ptr %__end0, align 8
  %cmp = icmp ne ptr %4, %5
  br i1 %cmp, label %for.body, label %for.end

for.body:                                         ; preds = %for.cond
  %6 = load ptr, ptr %__begin0, align 8
  store ptr %6, ptr %elem, align 8
  %7 = load i64, ptr %count, align 8
  %cmp3 = icmp ugt i64 %7, 0
  br i1 %cmp3, label %if.then, label %if.end8

if.then:                                          ; preds = %for.body
  %8 = load ptr, ptr %os.addr, align 8
  %call4 = call noundef nonnull align 8 dereferenceable(8) ptr @_ZStlsISt11char_traitsIcEERSt13basic_ostreamIcT_ES5_c(ptr noundef nonnull align 8 dereferenceable(8) %8, i8 noundef signext 44)
  %9 = load i64, ptr %count, align 8
  %cmp5 = icmp eq i64 %9, 32
  br i1 %cmp5, label %if.then6, label %if.end

if.then6:                                         ; preds = %if.then
  %10 = load ptr, ptr %os.addr, align 8
  %call7 = call noundef nonnull align 8 dereferenceable(8) ptr @_ZStlsISt11char_traitsIcEERSt13basic_ostreamIcT_ES5_PKc(ptr noundef nonnull align 8 dereferenceable(8) %10, ptr noundef @.str.193)
  br label %for.end

if.end:                                           ; preds = %if.then
  br label %if.end8

if.end8:                                          ; preds = %if.end, %for.body
  %11 = load ptr, ptr %os.addr, align 8
  %call9 = call noundef nonnull align 8 dereferenceable(8) ptr @_ZStlsISt11char_traitsIcEERSt13basic_ostreamIcT_ES5_c(ptr noundef nonnull align 8 dereferenceable(8) %11, i8 noundef signext 32)
  %12 = load ptr, ptr %elem, align 8
  %13 = load ptr, ptr %os.addr, align 8
  call void @_ZN7testing8internal14UniversalPrintIN4absl18container_internal12_GLOBAL__N_16Int128EEEvRKT_PSo(ptr noundef nonnull align 8 dereferenceable(16) %12, ptr noundef %13)
  %14 = load i64, ptr %count, align 8
  %inc = add i64 %14, 1
  store i64 %inc, ptr %count, align 8
  br label %for.inc

for.inc:                                          ; preds = %if.end8
  %15 = load ptr, ptr %__begin0, align 8
  %incdec.ptr = getelementptr inbounds %"struct.absl::container_internal::(anonymous namespace)::Int128", ptr %15, i32 1
  store ptr %incdec.ptr, ptr %__begin0, align 8
  br label %for.cond

for.end:                                          ; preds = %if.then6, %for.cond
  %16 = load i64, ptr %count, align 8
  %cmp10 = icmp ugt i64 %16, 0
  br i1 %cmp10, label %if.then11, label %if.end13

if.then11:                                        ; preds = %for.end
  %17 = load ptr, ptr %os.addr, align 8
  %call12 = call noundef nonnull align 8 dereferenceable(8) ptr @_ZStlsISt11char_traitsIcEERSt13basic_ostreamIcT_ES5_c(ptr noundef nonnull align 8 dereferenceable(8) %17, i8 noundef signext 32)
  br label %if.end13

if.end13:                                         ; preds = %if.then11, %for.end
  %18 = load ptr, ptr %os.addr, align 8
  %call14 = call noundef nonnull align 8 dereferenceable(8) ptr @_ZStlsISt11char_traitsIcEERSt13basic_ostreamIcT_ES5_c(ptr noundef nonnull align 8 dereferenceable(8) %18, i8 noundef signext 125)
  ret void
}

; Function Attrs: mustprogress uwtable
define internal void @_ZN7testing8internal17PrintWithFallbackIN4absl4SpanINS2_18container_internal12_GLOBAL__N_16Int128EEEEEvRKT_PSo(ptr noundef nonnull align 8 dereferenceable(16) %value, ptr noundef %os) #4 {
entry:
  %value.addr = alloca ptr, align 8
  %os.addr = alloca ptr, align 8
  store ptr %value, ptr %value.addr, align 8
  store ptr %os, ptr %os.addr, align 8
  %0 = load ptr, ptr %value.addr, align 8
  %1 = load ptr, ptr %os.addr, align 8
  call void @_ZN7testing8internal16ContainerPrinter10PrintValueIN4absl4SpanINS3_18container_internal12_GLOBAL__N_16Int128EEEvEEvRKT_PSo(ptr noundef nonnull align 8 dereferenceable(16) %0, ptr noundef %1)
  ret void
}

; Function Attrs: mustprogress uwtable
define internal void @_ZN7testing8internal7PrintToIN4absl4SpanINS2_18container_internal12_GLOBAL__N_16Int128EEEEEvRKT_PSo(ptr noundef nonnull align 8 dereferenceable(16) %value, ptr noundef %os) #4 {
entry:
  %value.addr = alloca ptr, align 8
  %os.addr = alloca ptr, align 8
  store ptr %value, ptr %value.addr, align 8
  store ptr %os, ptr %os.addr, align 8
  %0 = load ptr, ptr %value.addr, align 8
  %1 = load ptr, ptr %os.addr, align 8
  call void @_ZN7testing8internal17PrintWithFallbackIN4absl4SpanINS2_18container_internal12_GLOBAL__N_16Int128EEEEEvRKT_PSo(ptr noundef nonnull align 8 dereferenceable(16) %0, ptr noundef %1)
  ret void
}

; Function Attrs: mustprogress uwtable
define internal void @_ZN7testing8internal16UniversalPrinterIN4absl4SpanINS2_18container_internal12_GLOBAL__N_16Int128EEEE5PrintERKS7_PSo(ptr noundef nonnull align 8 dereferenceable(16) %value, ptr noundef %os) #4 align 2 {
entry:
  %value.addr = alloca ptr, align 8
  %os.addr = alloca ptr, align 8
  store ptr %value, ptr %value.addr, align 8
  store ptr %os, ptr %os.addr, align 8
  %0 = load ptr, ptr %value.addr, align 8
  %1 = load ptr, ptr %os.addr, align 8
  call void @_ZN7testing8internal7PrintToIN4absl4SpanINS2_18container_internal12_GLOBAL__N_16Int128EEEEEvRKT_PSo(ptr noundef nonnull align 8 dereferenceable(16) %0, ptr noundef %1)
  ret void
}