; Function Attrs: mustprogress uwtable
define internal fastcc void @_ZN7testing8internal16UniversalPrinterIN4absl4SpanINS2_18container_internal12_GLOBAL__N_16Int128EEEE5PrintERKS7_PSo(ptr nocapture noundef nonnull readonly align 8 dereferenceable(16) %value, ptr noundef nonnull %os) unnamed_addr #3 align 2 {
entry:
  %call.i.i.i = tail call noundef nonnull align 8 dereferenceable(8) ptr @_ZStlsISt11char_traitsIcEERSt13basic_ostreamIcT_ES5_c(ptr noundef nonnull align 8 dereferenceable(8) %os, i8 noundef signext 123)
  %container.val.i.i.i = load ptr, ptr %value, align 8
  %0 = getelementptr inbounds i8, ptr %value, i64 8
  %container.val14.i.i.i = load i64, ptr %0, align 8
  %add.ptr.i.i.i.i = getelementptr inbounds %"struct.absl::container_internal::(anonymous namespace)::Int128", ptr %container.val.i.i.i, i64 %container.val14.i.i.i
  %cmp.not17.i.i.i = icmp eq i64 %container.val14.i.i.i, 0
  br i1 %cmp.not17.i.i.i, label %_ZN7testing8internal7PrintToIN4absl4SpanINS2_18container_internal12_GLOBAL__N_16Int128EEEEEvRKT_PSo.exit, label %for.body.i.i.i

for.body.i.i.i:                                   ; preds = %entry, %if.end8.i.i.i
  %count.019.i.i.i = phi i64 [ %inc.i.i.i, %if.end8.i.i.i ], [ 0, %entry ]
  %__begin0.018.i.i.i = phi ptr [ %incdec.ptr.i.i.i, %if.end8.i.i.i ], [ %container.val.i.i.i, %entry ]
  %cmp3.not.i.i.i = icmp eq i64 %count.019.i.i.i, 0
  br i1 %cmp3.not.i.i.i, label %if.end8.i.i.i, label %if.then.i.i.i

if.then.i.i.i:                                    ; preds = %for.body.i.i.i
  %call4.i.i.i = tail call noundef nonnull align 8 dereferenceable(8) ptr @_ZStlsISt11char_traitsIcEERSt13basic_ostreamIcT_ES5_c(ptr noundef nonnull align 8 dereferenceable(8) %os, i8 noundef signext 44)
  %cmp5.i.i.i = icmp eq i64 %count.019.i.i.i, 32
  br i1 %cmp5.i.i.i, label %for.end.thread.i.i.i, label %if.end8.i.i.i

for.end.thread.i.i.i:                             ; preds = %if.then.i.i.i
  %call7.i.i.i = tail call noundef nonnull align 8 dereferenceable(8) ptr @_ZStlsISt11char_traitsIcEERSt13basic_ostreamIcT_ES5_PKc(ptr noundef nonnull align 8 dereferenceable(8) %os, ptr noundef nonnull @.str.193)
  br label %if.then11.i.i.i

if.end8.i.i.i:                                    ; preds = %if.then.i.i.i, %for.body.i.i.i
  %call9.i.i.i = tail call noundef nonnull align 8 dereferenceable(8) ptr @_ZStlsISt11char_traitsIcEERSt13basic_ostreamIcT_ES5_c(ptr noundef nonnull align 8 dereferenceable(8) %os, i8 noundef signext 32)
  tail call void @_ZN7testing8internal20PrintBytesInObjectToEPKhmPSo(ptr noundef nonnull %__begin0.018.i.i.i, i64 noundef 16, ptr noundef nonnull %os)
  %inc.i.i.i = add nuw nsw i64 %count.019.i.i.i, 1
  %incdec.ptr.i.i.i = getelementptr inbounds i8, ptr %__begin0.018.i.i.i, i64 16
  %cmp.not.i.i.i = icmp eq ptr %incdec.ptr.i.i.i, %add.ptr.i.i.i.i
  br i1 %cmp.not.i.i.i, label %if.then11.i.i.i, label %for.body.i.i.i

if.then11.i.i.i:                                  ; preds = %if.end8.i.i.i, %for.end.thread.i.i.i
  %call12.i.i.i = tail call noundef nonnull align 8 dereferenceable(8) ptr @_ZStlsISt11char_traitsIcEERSt13basic_ostreamIcT_ES5_c(ptr noundef nonnull align 8 dereferenceable(8) %os, i8 noundef signext 32)
  br label %_ZN7testing8internal7PrintToIN4absl4SpanINS2_18container_internal12_GLOBAL__N_16Int128EEEEEvRKT_PSo.exit

_ZN7testing8internal7PrintToIN4absl4SpanINS2_18container_internal12_GLOBAL__N_16Int128EEEEEvRKT_PSo.exit: ; preds = %entry, %if.then11.i.i.i
  %call14.i.i.i = tail call noundef nonnull align 8 dereferenceable(8) ptr @_ZStlsISt11char_traitsIcEERSt13basic_ostreamIcT_ES5_c(ptr noundef nonnull align 8 dereferenceable(8) %os, i8 noundef signext 125)
  ret void
}